; Function Attrs: mustprogress nounwind uwtable
define dso_local noundef ptr @_ZNK4llvm14MCSectionMachO7getAtomEm(ptr noundef nonnull align 8 dereferenceable(192) %0, i64 noundef %1) local_unnamed_addr #0 align 2 {
  %3 = getelementptr inbounds nuw i8, ptr %0, i64 176
  %4 = tail call noundef i64 @_ZNK4llvm15SmallVectorBaseIjE4sizeEv(ptr noundef nonnull align 8 dereferenceable(16) %3) #13
  %5 = icmp ult i64 %1, %4
  br i1 %5, label %6, label %10

6:                                                ; preds = %2
  %7 = load ptr, ptr %3, align 8
  %8 = getelementptr inbounds ptr, ptr %7, i64 %1
  %9 = load ptr, ptr %8, align 8
  br label %10

10:                                               ; preds = %2, %6
  %11 = phi ptr [ %9, %6 ], [ null, %2 ]
  ret ptr %11
}